target datalayout = "e-m:e-p270:32:32-p271:32:32-p272:64:64-i64:64-i128:128-f80:128-n8:16:32:64-S128"
target triple = "x86_64-pc-linux-gnu"

; Function Attrs: mustprogress uwtable
define noundef zeroext i1 @_ZN4base10ReadFromFDEiPcm(i32 noundef %0, ptr noundef %1, i64 noundef %2) #0 {
  %4 = alloca i32, align 4
  %5 = alloca ptr, align 8
  %6 = alloca i64, align 8
  %7 = alloca i64, align 8
  %8 = alloca i64, align 8
  %9 = alloca i64, align 8
  %10 = alloca i64, align 8
  %11 = alloca i32, align 4
  store i32 %0, ptr %4, align 4, !tbaa !20
  store ptr %1, ptr %5, align 8, !tbaa !12
  store i64 %2, ptr %6, align 8, !tbaa !40
  call void @llvm.lifetime.start.p0(i64 8, ptr %7) #10
  store i64 0, ptr %7, align 8, !tbaa !40
  br label %12

12:                                               ; preds = %47, %3
  %13 = load i64, ptr %7, align 8, !tbaa !40
  %14 = load i64, ptr %6, align 8, !tbaa !40
  %15 = icmp ult i64 %13, %14
  br i1 %15, label %16, label %48

16:                                               ; preds = %12
  call void @llvm.lifetime.start.p0(i64 8, ptr %8) #10
  call void @llvm.lifetime.start.p0(i64 8, ptr %9) #10
  br label %17

17:                                               ; preds = %33, %16
  %18 = load i32, ptr %4, align 4, !tbaa !20
  %19 = load ptr, ptr %5, align 8, !tbaa !12
  %20 = load i64, ptr %7, align 8, !tbaa !40
  %21 = getelementptr inbounds nuw i8, ptr %19, i64 %20
  %22 = load i64, ptr %6, align 8, !tbaa !40
  %23 = load i64, ptr %7, align 8, !tbaa !40
  %24 = sub i64 %22, %23
  %25 = call i64 @read(i32 noundef %18, ptr noundef %21, i64 noundef %24)
  store i64 %25, ptr %9, align 8, !tbaa !40
  br label %26

26:                                               ; preds = %17
  %27 = load i64, ptr %9, align 8, !tbaa !40
  %28 = icmp eq i64 %27, -1
  br i1 %28, label %29, label %33

29:                                               ; preds = %26
  %30 = call ptr @__errno_location() #17
  %31 = load i32, ptr %30, align 4, !tbaa !20
  %32 = icmp eq i32 %31, 4
  br label %33

33:                                               ; preds = %29, %26
  %34 = phi i1 [ false, %26 ], [ %32, %29 ]
  br i1 %34, label %17, label %35, !llvm.loop !51

35:                                               ; preds = %33
  %36 = load i64, ptr %9, align 8, !tbaa !40
  store i64 %36, ptr %10, align 8, !tbaa !40
  call void @llvm.lifetime.end.p0(i64 8, ptr %9) #10
  %37 = load i64, ptr %10, align 8, !tbaa !40
  store i64 %37, ptr %8, align 8, !tbaa !40
  %38 = load i64, ptr %8, align 8, !tbaa !40
  %39 = icmp sle i64 %38, 0
  br i1 %39, label %40, label %41

40:                                               ; preds = %35
  store i32 3, ptr %11, align 4
  br label %45

41:                                               ; preds = %35
  %42 = load i64, ptr %8, align 8, !tbaa !40
  %43 = load i64, ptr %7, align 8, !tbaa !40
  %44 = add i64 %43, %42
  store i64 %44, ptr %7, align 8, !tbaa !40
  store i32 0, ptr %11, align 4
  br label %45

45:                                               ; preds = %41, %40
  call void @llvm.lifetime.end.p0(i64 8, ptr %8) #10
  %46 = load i32, ptr %11, align 4
  switch i32 %46, label %52 [
    i32 0, label %47
    i32 3, label %48
  ]

47:                                               ; preds = %45
  br label %12, !llvm.loop !52

48:                                               ; preds = %45, %12
  %49 = load i64, ptr %7, align 8, !tbaa !40
  %50 = load i64, ptr %6, align 8, !tbaa !40
  %51 = icmp eq i64 %49, %50
  store i32 1, ptr %11, align 4
  call void @llvm.lifetime.end.p0(i64 8, ptr %7) #10
  ret i1 %51

52:                                               ; preds = %45
  unreachable
}