; Function Attrs: mustprogress nofree uwtable
define noundef zeroext i1 @_ZN4base10ReadFromFDEiPcm(i32 noundef %0, ptr noundef captures(none) %1, i64 noundef %2) local_unnamed_addr #8 {
  br label %4

4:                                                ; preds = %.critedge, %3
  %.015 = phi i64 [ 0, %3 ], [ %16, %.critedge ]
  %5 = icmp ult i64 %.015, %2
  br i1 %5, label %.preheader, label %.critedge.thread

.preheader:                                       ; preds = %4
  %6 = getelementptr inbounds nuw i8, ptr %1, i64 %.015
  %7 = sub nuw i64 %2, %.015
  br label %8

8:                                                ; preds = %.preheader, %11
  %9 = tail call i64 @read(i32 noundef %0, ptr noundef %6, i64 noundef %7)
  %10 = icmp eq i64 %9, -1
  br i1 %10, label %11, label %.critedge

11:                                               ; preds = %8
  %12 = tail call ptr @__errno_location() #25
  %13 = load i32, ptr %12, align 4, !tbaa !11
  %14 = icmp eq i32 %13, 4
  br i1 %14, label %8, label %.critedge.thread, !llvm.loop !55

.critedge:                                        ; preds = %8
  %15 = icmp slt i64 %9, 1
  %16 = add i64 %9, %.015
  br i1 %15, label %.critedge.thread, label %4

.critedge.thread:                                 ; preds = %.critedge, %4, %11
  %17 = icmp eq i64 %.015, %2
  ret i1 %17
}